; ModuleID = '7/88.c'
source_filename = "7/88.c"
target datalayout = "e-m:e-p270:32:32-p271:32:32-p272:64:64-i64:64-f80:128-n8:16:32:64-S128"
target triple = "x86_64-pc-linux-gnu"

@.str = private unnamed_addr constant [3 x i8] c"%c\00", align 1
@.str.1 = private unnamed_addr constant [3 x i8] c"%s\00", align 1
@.str.2 = private unnamed_addr constant [3 x i8] c"%d\00", align 1

; Function Attrs: noinline nounwind uwtable
define dso_local i32 @main() #0 {
  %1 = alloca i32, align 4
  %2 = alloca [256 x i8], align 16
  %3 = alloca [256 x i8], align 16
  %4 = alloca [256 x i8], align 16
  %5 = alloca i32, align 4
  %6 = alloca i32, align 4
  %7 = alloca i32, align 4
  %8 = alloca i32, align 4
  %9 = alloca i32, align 4
  %10 = alloca i32, align 4
  %11 = alloca i32, align 4
  %12 = alloca i32, align 4
  %13 = alloca i32, align 4
  %14 = alloca i32, align 4
  %15 = alloca i32, align 4
  store i32 0, i32* %1, align 4
  store i32 0, i32* %14, align 4
  %16 = getelementptr inbounds [256 x i8], [256 x i8]* %2, i64 0, i64 0
  %17 = call i32 (i8*, ...) bitcast (i32 (...)* @gets to i32 (i8*, ...)*)(i8* %16)
  %18 = getelementptr inbounds [256 x i8], [256 x i8]* %3, i64 0, i64 0
  %19 = call i32 (i8*, ...) bitcast (i32 (...)* @gets to i32 (i8*, ...)*)(i8* %18)
  %20 = getelementptr inbounds [256 x i8], [256 x i8]* %4, i64 0, i64 0
  %21 = call i32 (i8*, ...) bitcast (i32 (...)* @gets to i32 (i8*, ...)*)(i8* %20)
  %22 = getelementptr inbounds [256 x i8], [256 x i8]* %2, i64 0, i64 0
  %23 = call i64 @strlen(i8* %22) #3
  %24 = trunc i64 %23 to i32
  store i32 %24, i32* %13, align 4
  %25 = getelementptr inbounds [256 x i8], [256 x i8]* %3, i64 0, i64 0
  %26 = call i64 @strlen(i8* %25) #3
  %27 = trunc i64 %26 to i32
  store i32 %27, i32* %11, align 4
  %28 = getelementptr inbounds [256 x i8], [256 x i8]* %4, i64 0, i64 0
  %29 = call i64 @strlen(i8* %28) #3
  %30 = trunc i64 %29 to i32
  store i32 %30, i32* %6, align 4
  store i32 0, i32* %5, align 4
  br label %31

31:                                               ; preds = %154, %0
  %32 = load i32, i32* %5, align 4
  %33 = sext i32 %32 to i64
  %34 = getelementptr inbounds [256 x i8], [256 x i8]* %2, i64 0, i64 %33
  %35 = load i8, i8* %34, align 1
  %36 = sext i8 %35 to i32
  %37 = icmp ne i32 %36, 0
  br i1 %37, label %38, label %157

38:                                               ; preds = %31
  %39 = load i32, i32* %5, align 4
  %40 = sext i32 %39 to i64
  %41 = getelementptr inbounds [256 x i8], [256 x i8]* %2, i64 0, i64 %40
  %42 = load i8, i8* %41, align 1
  %43 = sext i8 %42 to i32
  %44 = getelementptr inbounds [256 x i8], [256 x i8]* %3, i64 0, i64 0
  %45 = load i8, i8* %44, align 16
  %46 = sext i8 %45 to i32
  %47 = icmp eq i32 %43, %46
  br i1 %47, label %48, label %149

48:                                               ; preds = %38
  store i32 0, i32* %7, align 4
  store i32 0, i32* %9, align 4
  br label %49

49:                                               ; preds = %69, %48
  %50 = load i32, i32* %9, align 4
  %51 = load i32, i32* %11, align 4
  %52 = icmp slt i32 %50, %51
  br i1 %52, label %53, label %72

53:                                               ; preds = %49
  %54 = load i32, i32* %9, align 4
  %55 = load i32, i32* %5, align 4
  %56 = add nsw i32 %54, %55
  %57 = sext i32 %56 to i64
  %58 = getelementptr inbounds [256 x i8], [256 x i8]* %2, i64 0, i64 %57
  %59 = load i8, i8* %58, align 1
  %60 = sext i8 %59 to i32
  %61 = load i32, i32* %9, align 4
  %62 = sext i32 %61 to i64
  %63 = getelementptr inbounds [256 x i8], [256 x i8]* %3, i64 0, i64 %62
  %64 = load i8, i8* %63, align 1
  %65 = sext i8 %64 to i32
  %66 = icmp ne i32 %60, %65
  br i1 %66, label %67, label %68

67:                                               ; preds = %53
  store i32 1, i32* %7, align 4
  br label %68

68:                                               ; preds = %67, %53
  br label %69

69:                                               ; preds = %68
  %70 = load i32, i32* %9, align 4
  %71 = add nsw i32 %70, 1
  store i32 %71, i32* %9, align 4
  br label %49

72:                                               ; preds = %49
  %73 = load i32, i32* %7, align 4
  %74 = icmp eq i32 %73, 0
  br i1 %74, label %75, label %144

75:                                               ; preds = %72
  %76 = load i32, i32* %5, align 4
  store i32 %76, i32* %8, align 4
  %77 = load i32, i32* %8, align 4
  %78 = icmp ne i32 %77, 0
  br i1 %78, label %79, label %95

79:                                               ; preds = %75
  store i32 0, i32* %10, align 4
  br label %80

80:                                               ; preds = %91, %79
  %81 = load i32, i32* %10, align 4
  %82 = load i32, i32* %8, align 4
  %83 = icmp slt i32 %81, %82
  br i1 %83, label %84, label %94

84:                                               ; preds = %80
  %85 = load i32, i32* %10, align 4
  %86 = sext i32 %85 to i64
  %87 = getelementptr inbounds [256 x i8], [256 x i8]* %2, i64 0, i64 %86
  %88 = load i8, i8* %87, align 1
  %89 = sext i8 %88 to i32
  %90 = call i32 (i8*, ...) @printf(i8* getelementptr inbounds ([3 x i8], [3 x i8]* @.str, i64 0, i64 0), i32 %89)
  store i32 1, i32* %14, align 4
  br label %91

91:                                               ; preds = %84
  %92 = load i32, i32* %10, align 4
  %93 = add nsw i32 %92, 1
  store i32 %93, i32* %10, align 4
  br label %80

94:                                               ; preds = %80
  br label %95

95:                                               ; preds = %94, %75
  store i32 0, i32* %12, align 4
  br label %96

96:                                               ; preds = %107, %95
  %97 = load i32, i32* %12, align 4
  %98 = load i32, i32* %6, align 4
  %99 = icmp slt i32 %97, %98
  br i1 %99, label %100, label %110

100:                                              ; preds = %96
  %101 = load i32, i32* %12, align 4
  %102 = sext i32 %101 to i64
  %103 = getelementptr inbounds [256 x i8], [256 x i8]* %4, i64 0, i64 %102
  %104 = load i8, i8* %103, align 1
  %105 = sext i8 %104 to i32
  %106 = call i32 (i8*, ...) @printf(i8* getelementptr inbounds ([3 x i8], [3 x i8]* @.str, i64 0, i64 0), i32 %105)
  br label %107

107:                                              ; preds = %100
  %108 = load i32, i32* %12, align 4
  %109 = add nsw i32 %108, 1
  store i32 %109, i32* %12, align 4
  br label %96

110:                                              ; preds = %96
  %111 = load i32, i32* %11, align 4
  %112 = load i32, i32* %8, align 4
  %113 = add nsw i32 %111, %112
  %114 = sext i32 %113 to i64
  %115 = getelementptr inbounds [256 x i8], [256 x i8]* %2, i64 0, i64 %114
  %116 = load i8, i8* %115, align 1
  %117 = sext i8 %116 to i32
  %118 = icmp ne i32 %117, 0
  br i1 %118, label %119, label %139

119:                                              ; preds = %110
  %120 = load i32, i32* %11, align 4
  %121 = load i32, i32* %8, align 4
  %122 = add nsw i32 %120, %121
  store i32 %122, i32* %10, align 4
  br label %123

123:                                              ; preds = %134, %119
  %124 = load i32, i32* %10, align 4
  %125 = load i32, i32* %13, align 4
  %126 = icmp slt i32 %124, %125
  br i1 %126, label %127, label %137

127:                                              ; preds = %123
  %128 = load i32, i32* %10, align 4
  %129 = sext i32 %128 to i64
  %130 = getelementptr inbounds [256 x i8], [256 x i8]* %2, i64 0, i64 %129
  %131 = load i8, i8* %130, align 1
  %132 = sext i8 %131 to i32
  %133 = call i32 (i8*, ...) @printf(i8* getelementptr inbounds ([3 x i8], [3 x i8]* @.str, i64 0, i64 0), i32 %132)
  br label %134

134:                                              ; preds = %127
  %135 = load i32, i32* %10, align 4
  %136 = add nsw i32 %135, 1
  store i32 %136, i32* %10, align 4
  br label %123

137:                                              ; preds = %123
  %138 = call i32 (i8*, ...) @printf(i8* null)
  store i32 1, i32* %14, align 4
  br label %139

139:                                              ; preds = %137, %110
  %140 = load i32, i32* %14, align 4
  %141 = icmp eq i32 %140, 1
  br i1 %141, label %142, label %143

142:                                              ; preds = %139
  br label %157

143:                                              ; preds = %139
  br label %144

144:                                              ; preds = %143, %72
  %145 = load i32, i32* %14, align 4
  %146 = icmp eq i32 %145, 1
  br i1 %146, label %147, label %148

147:                                              ; preds = %144
  br label %157

148:                                              ; preds = %144
  br label %149

149:                                              ; preds = %148, %38
  %150 = load i32, i32* %14, align 4
  %151 = icmp eq i32 %150, 1
  br i1 %151, label %152, label %153

152:                                              ; preds = %149
  br label %157

153:                                              ; preds = %149
  br label %154

154:                                              ; preds = %153
  %155 = load i32, i32* %5, align 4
  %156 = add nsw i32 %155, 1
  store i32 %156, i32* %5, align 4
  br label %31

157:                                              ; preds = %152, %147, %142, %31
  %158 = load i32, i32* %14, align 4
  %159 = icmp eq i32 %158, 0
  br i1 %159, label %160, label %163

160:                                              ; preds = %157
  %161 = getelementptr inbounds [256 x i8], [256 x i8]* %2, i64 0, i64 0
  %162 = call i32 (i8*, ...) @printf(i8* getelementptr inbounds ([3 x i8], [3 x i8]* @.str.1, i64 0, i64 0), i8* %161)
  br label %163

163:                                              ; preds = %160, %157
  %164 = call i32 (i8*, ...) @__isoc99_scanf(i8* getelementptr inbounds ([3 x i8], [3 x i8]* @.str.2, i64 0, i64 0), i32* %15)
  ret i32 0
}

declare dso_local i32 @gets(...) #1

; Function Attrs: nounwind readonly
declare dso_local i64 @strlen(i8*) #2

declare dso_local i32 @printf(i8*, ...) #1

declare dso_local i32 @__isoc99_scanf(i8*, ...) #1


!llvm.module.flags = !{!0}
!llvm.ident = !{!1}

!0 = !{i32 1, !"wchar_size", i32 4}
!1 = !{!"clang version 10.0.0-4ubuntu1 "}
